
64bit elf: type=2, abi=7, sm=75, toolkit=116, flags = 0x4b054b
Sections:
Index Offset   Size ES Align        Type        Flags Link     Info Name
    1     40    12d  0  1            STRTAB       0    0        0 .shstrtab
    2    16d    14f  0  1            STRTAB       0    0        0 .strtab
    3    2c0     d8 18  8            SYMTAB       0    2        7 .symtab
    4    398     e0  0  1          PROGBITS       0    0        0 .debug_frame
    5    478     60  0  4         CUDA_INFO       0    3        0 .nv.info
    6    4d8     78  0  4         CUDA_INFO       0    3        c .nv.info._Z5daxpyidPdS_
    7    550     68  0  4         CUDA_INFO       0    3        d .nv.info._Z4initiPdd
    8    5b8     d8  8  8    CUDA_RELOCINFO       0    0        0 .nv.rel.action
    9    690     20 10  8               REL       0    3        4 .rel.debug_frame
    a    6b0    180  0  4          PROGBITS       2    0        c .nv.constant0._Z5daxpyidPdS_
    b    830    178  0  4          PROGBITS       2    0        d .nv.constant0._Z4initiPdd
    c    a00    180  0 80          PROGBITS       6    3  c000007 .text._Z5daxpyidPdS_
    d    b80    180  0 80          PROGBITS       6    3  c000008 .text._Z4initiPdd

.section .strtab

.section .shstrtab

.section .symtab
 index           value           size      info    other  shndx    name  
   0               0               0        0        0      0     (null)
 0x1               0               0      0x3        0    0xc     .text._Z5daxpyidPdS_
 0x2               0               0      0x3        0    0xa     .nv.constant0._Z5daxpyidPdS_
 0x3               0               0      0x3        0    0xd     .text._Z4initiPdd
 0x4               0               0      0x3        0    0xb     .nv.constant0._Z4initiPdd
 0x5               0               0      0x3        0    0x4     .debug_frame
 0x6               0               0      0x3        0    0x8     .nv.rel.action
 0x7               0           0x180     0x12     0x10    0xc     _Z5daxpyidPdS_
 0x8               0           0x180     0x12     0x10    0xd     _Z4initiPdd


.nv.constant0._Z5daxpyidPdS_
0x00000000 0x00000000 0x00000000 0x00000000
0x00000000 0x00000000 0x00000000 0x00000000
0x00000000 0x00000000 0x00000000 0x00000000
0x00000000 0x00000000 0x00000000 0x00000000
0x00000000 0x00000000 0x00000000 0x00000000
0x00000000 0x00000000 0x00000000 0x00000000
0x00000000 0x00000000 0x00000000 0x00000000
0x00000000 0x00000000 0x00000000 0x00000000
0x00000000 0x00000000 0x00000000 0x00000000
0x00000000 0x00000000 0x00000000 0x00000000
0x00000000 0x00000000 0x00000000 0x00000000
0x00000000 0x00000000 0x00000000 0x00000000
0x00000000 0x00000000 0x00000000 0x00000000
0x00000000 0x00000000 0x00000000 0x00000000
0x00000000 0x00000000 0x00000000 0x00000000
0x00000000 0x00000000 0x00000000 0x00000000
0x00000000 0x00000000 0x00000000 0x00000000
0x00000000 0x00000000 0x00000000 0x00000000
0x00000000 0x00000000 0x00000000 0x00000000
0x00000000 0x00000000 0x00000000 0x00000000
0x00000000 0x00000000 0x00000000 0x00000000
0x00000000 0x00000000 0x00000000 0x00000000
0x00000000 0x00000000 0x00000000 0x00000000
0x00000000 0x00000000 0x00000000 0x00000000



.nv.constant0._Z4initiPdd
0x00000000 0x00000000 0x00000000 0x00000000
0x00000000 0x00000000 0x00000000 0x00000000
0x00000000 0x00000000 0x00000000 0x00000000
0x00000000 0x00000000 0x00000000 0x00000000
0x00000000 0x00000000 0x00000000 0x00000000
0x00000000 0x00000000 0x00000000 0x00000000
0x00000000 0x00000000 0x00000000 0x00000000
0x00000000 0x00000000 0x00000000 0x00000000
0x00000000 0x00000000 0x00000000 0x00000000
0x00000000 0x00000000 0x00000000 0x00000000
0x00000000 0x00000000 0x00000000 0x00000000
0x00000000 0x00000000 0x00000000 0x00000000
0x00000000 0x00000000 0x00000000 0x00000000
0x00000000 0x00000000 0x00000000 0x00000000
0x00000000 0x00000000 0x00000000 0x00000000
0x00000000 0x00000000 0x00000000 0x00000000
0x00000000 0x00000000 0x00000000 0x00000000
0x00000000 0x00000000 0x00000000 0x00000000
0x00000000 0x00000000 0x00000000 0x00000000
0x00000000 0x00000000 0x00000000 0x00000000
0x00000000 0x00000000 0x00000000 0x00000000
0x00000000 0x00000000 0x00000000 0x00000000
0x00000000 0x00000000 0x00000000 0x00000000
0x00000000 0x00000000 


.nv.info
	<0x1>
	Attribute:	EIATTR_REGCOUNT
	Format:	EIFMT_SVAL
	Value:	function: _Z4initiPdd(0x8)	register count: 12
	<0x2>
	Attribute:	EIATTR_MAX_STACK_SIZE
	Format:	EIFMT_SVAL
	Value:	0x8 0x0 
	<0x3>
	Attribute:	EIATTR_MIN_STACK_SIZE
	Format:	EIFMT_SVAL
	Value:	function: _Z4initiPdd(0x8)	min stack size: 0x0
	<0x4>
	Attribute:	EIATTR_FRAME_SIZE
	Format:	EIFMT_SVAL
	Value:	function: _Z4initiPdd(0x8)	frame size: 0x0
	<0x5>
	Attribute:	EIATTR_REGCOUNT
	Format:	EIFMT_SVAL
	Value:	function: _Z5daxpyidPdS_(0x7)	register count: 12
	<0x6>
	Attribute:	EIATTR_MAX_STACK_SIZE
	Format:	EIFMT_SVAL
	Value:	0x7 0x0 
	<0x7>
	Attribute:	EIATTR_MIN_STACK_SIZE
	Format:	EIFMT_SVAL
	Value:	function: _Z5daxpyidPdS_(0x7)	min stack size: 0x0
	<0x8>
	Attribute:	EIATTR_FRAME_SIZE
	Format:	EIFMT_SVAL
	Value:	function: _Z5daxpyidPdS_(0x7)	frame size: 0x0


.nv.info._Z5daxpyidPdS_
	<0x1>
	Attribute:	EIATTR_SW_WAR
	Format:	EIFMT_SVAL
	Value:	0x1 
	<0x2>
	Attribute:	EIATTR_CUDA_API_VERSION
	Format:	EIFMT_SVAL
	Value:	0x74 
	<0x3>
	Attribute:	EIATTR_PARAM_CBANK
	Format:	EIFMT_SVAL
	Value:	0x2 0x200160 
	<0x4>
	Attribute:	EIATTR_CBANK_PARAM_SIZE
	Format:	EIFMT_HVAL
	Value:	0x20
	<0x5>
	Attribute:	EIATTR_KPARAM_INFO
	Format:	EIFMT_SVAL
	Value:	Index : 0x0	Ordinal : 0x3	Offset  : 0x18	Size    : 0x8
		Pointee's logAlignment : 0x0	Space : 0x0	cbank : 0x1f	Parameter Space : CBANK	
	<0x6>
	Attribute:	EIATTR_KPARAM_INFO
	Format:	EIFMT_SVAL
	Value:	Index : 0x0	Ordinal : 0x2	Offset  : 0x10	Size    : 0x8
		Pointee's logAlignment : 0x0	Space : 0x0	cbank : 0x1f	Parameter Space : CBANK	
	<0x7>
	Attribute:	EIATTR_KPARAM_INFO
	Format:	EIFMT_SVAL
	Value:	Index : 0x0	Ordinal : 0x1	Offset  : 0x8	Size    : 0x8
		Pointee's logAlignment : 0x0	Space : 0x0	cbank : 0x1f	Parameter Space : CBANK	
	<0x8>
	Attribute:	EIATTR_KPARAM_INFO
	Format:	EIFMT_SVAL
	Value:	Index : 0x0	Ordinal : 0x0	Offset  : 0x0	Size    : 0x4
		Pointee's logAlignment : 0x0	Space : 0x0	cbank : 0x1f	Parameter Space : CBANK	
	<0x9>
	Attribute:	EIATTR_MAXREG_COUNT
	Format:	EIFMT_HVAL
	Value:	0xff
	<0x10>
	Attribute:	EIATTR_EXIT_INSTR_OFFSETS
	Format:	EIFMT_SVAL
	Value:	0x50 0x110 
	<0x11>
	Attribute:	EIATTR_CRS_STACK_SIZE
	Format:	EIFMT_SVAL
	Value:	0x0 


.nv.info._Z4initiPdd
	<0x1>
	Attribute:	EIATTR_SW_WAR
	Format:	EIFMT_SVAL
	Value:	0x1 
	<0x2>
	Attribute:	EIATTR_CUDA_API_VERSION
	Format:	EIFMT_SVAL
	Value:	0x74 
	<0x3>
	Attribute:	EIATTR_PARAM_CBANK
	Format:	EIFMT_SVAL
	Value:	0x4 0x180160 
	<0x4>
	Attribute:	EIATTR_CBANK_PARAM_SIZE
	Format:	EIFMT_HVAL
	Value:	0x18
	<0x5>
	Attribute:	EIATTR_KPARAM_INFO
	Format:	EIFMT_SVAL
	Value:	Index : 0x0	Ordinal : 0x2	Offset  : 0x10	Size    : 0x8
		Pointee's logAlignment : 0x0	Space : 0x0	cbank : 0x1f	Parameter Space : CBANK	
	<0x6>
	Attribute:	EIATTR_KPARAM_INFO
	Format:	EIFMT_SVAL
	Value:	Index : 0x0	Ordinal : 0x1	Offset  : 0x8	Size    : 0x8
		Pointee's logAlignment : 0x0	Space : 0x0	cbank : 0x1f	Parameter Space : CBANK	
	<0x7>
	Attribute:	EIATTR_KPARAM_INFO
	Format:	EIFMT_SVAL
	Value:	Index : 0x0	Ordinal : 0x0	Offset  : 0x0	Size    : 0x4
		Pointee's logAlignment : 0x0	Space : 0x0	cbank : 0x1f	Parameter Space : CBANK	
	<0x8>
	Attribute:	EIATTR_MAXREG_COUNT
	Format:	EIFMT_HVAL
	Value:	0xff
	<0x9>
	Attribute:	EIATTR_EXIT_INSTR_OFFSETS
	Format:	EIFMT_SVAL
	Value:	0x50 0xf0 
	<0x10>
	Attribute:	EIATTR_CRS_STACK_SIZE
	Format:	EIFMT_SVAL
	Value:	0x0 


.nv.rel.action
Header : Base Relocation : R_CUDA_ABS55_16_34
Reloc type : Symbol Kind,Addend Shift,Source Position1,length1,Destination Position1,Source Position2,length2,Destination Position2
R_CUDA_ABS55_16_34 : EIVALUE_SYM_KIND_ADDR,2,2,8,16,10,47,34
R_CUDA_8_0 : EIVALUE_SYM_KIND_ADDR,0,0,8,0,0,0,0
R_CUDA_8_8 : EIVALUE_SYM_KIND_ADDR,0,8,8,0,0,0,0
R_CUDA_8_16 : EIVALUE_SYM_KIND_ADDR,0,16,8,0,0,0,0
R_CUDA_8_24 : EIVALUE_SYM_KIND_ADDR,0,24,8,0,0,0,0
R_CUDA_8_32 : EIVALUE_SYM_KIND_ADDR,0,32,8,0,0,0,0
R_CUDA_8_40 : EIVALUE_SYM_KIND_ADDR,0,40,8,0,0,0,0
R_CUDA_8_48 : EIVALUE_SYM_KIND_ADDR,0,48,8,0,0,0,0
R_CUDA_8_56 : EIVALUE_SYM_KIND_ADDR,0,56,8,0,0,0,0
R_CUDA_G8_0 : EIVALUE_SYM_KIND_GADDR,0,0,8,0,0,0,0
R_CUDA_G8_8 : EIVALUE_SYM_KIND_GADDR,0,8,8,0,0,0,0
R_CUDA_G8_16 : EIVALUE_SYM_KIND_GADDR,0,16,8,0,0,0,0
R_CUDA_G8_24 : EIVALUE_SYM_KIND_GADDR,0,24,8,0,0,0,0
R_CUDA_G8_32 : EIVALUE_SYM_KIND_GADDR,0,32,8,0,0,0,0
R_CUDA_G8_40 : EIVALUE_SYM_KIND_GADDR,0,40,8,0,0,0,0
R_CUDA_G8_48 : EIVALUE_SYM_KIND_GADDR,0,48,8,0,0,0,0
R_CUDA_G8_56 : EIVALUE_SYM_KIND_GADDR,0,56,8,0,0,0,0
R_CUDA_FUNC_DESC_8_0 : EIVALUE_SYM_KIND_FDESC,0,0,8,0,0,0,0
R_CUDA_FUNC_DESC_8_8 : EIVALUE_SYM_KIND_FDESC,0,8,8,0,0,0,0
R_CUDA_FUNC_DESC_8_16 : EIVALUE_SYM_KIND_FDESC,0,16,8,0,0,0,0
R_CUDA_FUNC_DESC_8_24 : EIVALUE_SYM_KIND_FDESC,0,24,8,0,0,0,0
R_CUDA_FUNC_DESC_8_32 : EIVALUE_SYM_KIND_FDESC,0,32,8,0,0,0,0
R_CUDA_FUNC_DESC_8_40 : EIVALUE_SYM_KIND_FDESC,0,40,8,0,0,0,0
R_CUDA_FUNC_DESC_8_48 : EIVALUE_SYM_KIND_FDESC,0,48,8,0,0,0,0
R_CUDA_FUNC_DESC_8_56 : EIVALUE_SYM_KIND_FDESC,0,56,8,0,0,0,0
R_CUDA_ABS20_44 : EIVALUE_SYM_KIND_ADDR,0,0,20,44,0,0,0


.text._Z5daxpyidPdS_
bar = 0	reg = 12	lmem=0	smem=0
0x00017a02 0x00000a00 0x00000f00 0x000fc400
0x00007919 0x00000000 0x00002500 0x000e2800
0x00037919 0x00000000 0x00002100 0x000e2400
0x00007a24 0x00000000 0x078e0203 0x001fca00
0x00007a0c 0x00005800 0x03f06270 0x000fd800
0x0000094d 0x00000000 0x03800000 0x000fea00
0x00057802 0x00000008 0x00000f00 0x001fca00
0x00027625 0x00005c00 0x078e0205 0x000fc800
0x00047625 0x00005e00 0x078e0205 0x000fc800
0x02027381 0x00000000 0x001eeb00 0x000ea800
0x04067381 0x00000000 0x001eeb00 0x000ea200
0x00097a02 0x00000300 0x00000f00 0x000fca00
0x09007a24 0x00000000 0x078e0200 0x000fca00
0x00007a0c 0x00005800 0x03f06270 0x000fe200
0x02067a2b 0x00005a00 0x00000006 0x004e1200
0x04007386 0x00000006 0x0010eb00 0x0011e400
0x00008947 0xffffff50 0x0383ffff 0x000fea00
0x0000794d 0x00000000 0x03800000 0x000fea00
0x00007947 0xfffffff0 0x0383ffff 0x000fc000
0x00007918 0x00000000 0x00000000 0x000fc000
0x00007918 0x00000000 0x00000000 0x000fc000
0x00007918 0x00000000 0x00000000 0x000fc000
0x00007918 0x00000000 0x00000000 0x000fc000
0x00007918 0x00000000 0x00000000 0x000fc000



.text._Z4initiPdd
bar = 0	reg = 12	lmem=0	smem=0
0x00017a02 0x00000a00 0x00000f00 0x000fc400
0x00007919 0x00000000 0x00002500 0x000e2800
0x00037919 0x00000000 0x00002100 0x000e2400
0x00007a24 0x00000000 0x078e0203 0x001fca00
0x00007a0c 0x00005800 0x03f06270 0x000fd800
0x0000094d 0x00000000 0x03800000 0x000fea00
0x00077802 0x00000008 0x00000f00 0x000fe200
0xff097624 0x00000300 0x078e00ff 0x000fe200
0x00047a02 0x00005c00 0x00000f00 0x000fe200
0xff057624 0x00005d00 0x078e00ff 0x000fc400
0x00027625 0x00005a00 0x078e0207 0x000fc800
0x09007a24 0x00000000 0x078e0200 0x000fc800
0x02007386 0x00000004 0x0010eb00 0x0001e200
0x00007a0c 0x00005800 0x03f06270 0x000fd800
0x00008947 0xffffffb0 0x0383ffff 0x001fea00
0x0000794d 0x00000000 0x03800000 0x000fea00
0x00007947 0xfffffff0 0x0383ffff 0x000fc000
0x00007918 0x00000000 0x00000000 0x000fc000
0x00007918 0x00000000 0x00000000 0x000fc000
0x00007918 0x00000000 0x00000000 0x000fc000
0x00007918 0x00000000 0x00000000 0x000fc000
0x00007918 0x00000000 0x00000000 0x000fc000
0x00007918 0x00000000 0x00000000 0x000fc000
0x00007918 0x00000000 0x00000000 0x000fc000


.section .debug_frame
decodeDebugFrame, frameBuf 0xffffffff, total_length 224
CIE length 40, cie_id -1
version 3
augmentation slen 1
augmentation 
code_align_factor slen 1
data_align_factor slen 1
 Debug Frame Common Information Entry
  length:                 40
  CIE_id :                -1
  version:                3
  augmentation:           
  code align factor:      4
  data align factor:      -4
  return address register 0xffffffff
  initial instructions: 23 bytes, ptr = 0x8080810c, frameBuf = 0xffffffff
  DW_CFA_def_cfa register R1, offset 0
  DW_CFA_same_value R255
  DW_CFA_same_value R1
  DW_CFA_nop
  DW_CFA_nop
  DW_CFA_nop
  DW_CFA_nop
  DW_CFA_nop
  DW_CFA_nop
  DW_CFA_nop
 Debug Frame Description Entry
  length:                 48
  CIE_pointer:            0
  initial_location:       0x0
  address_range:          0x170
  instructions: 24 bytes
  DW_CFA_advance_loc4 delta 4
  DW_CFA_advance_loc4 delta 20
  DW_CFA_def_cfa register R1, offset 0
  DW_CFA_advance_loc4 delta 44
  DW_CFA_nop
  DW_CFA_nop
  DW_CFA_nop
CIE length 40, cie_id -1
version 3
augmentation slen 1
augmentation 
code_align_factor slen 1
data_align_factor slen 1
 Debug Frame Common Information Entry
  length:                 40
  CIE_id :                -1
  version:                3
  augmentation:           
  code align factor:      4
  data align factor:      -4
  return address register 0xffffffff
  initial instructions: 23 bytes, ptr = 0x8080810c, frameBuf = 0xffffffff
  DW_CFA_def_cfa register R1, offset 0
  DW_CFA_same_value R255
  DW_CFA_same_value R1
  DW_CFA_nop
  DW_CFA_nop
  DW_CFA_nop
  DW_CFA_nop
  DW_CFA_nop
  DW_CFA_nop
  DW_CFA_nop
 Debug Frame Description Entry
  length:                 48
  CIE_pointer:            112
  initial_location:       0x0
  address_range:          0x170
  instructions: 24 bytes
  DW_CFA_advance_loc4 delta 4
  DW_CFA_advance_loc4 delta 20
  DW_CFA_def_cfa register R1, offset 0
  DW_CFA_advance_loc4 delta 36
  DW_CFA_nop
  DW_CFA_nop
  DW_CFA_nop

.section .rel.debug_frame	REL
0xb8    _Z4initiPdd    R_CUDA_64
0x48    _Z5daxpyidPdS_    R_CUDA_64
